; Function Attrs: nofree norecurse nosync nounwind memory(read, argmem: readwrite, inaccessiblemem: none) uwtable
define internal fastcc void @update_refs(ptr noundef captures(none) %0) unnamed_addr #8 {
  %2 = getelementptr inbounds nuw i8, ptr %0, i64 312
  %3 = load i32, ptr %2, align 8, !tbaa !65
  %4 = sext i32 %3 to i64
  %5 = getelementptr inbounds [256 x i8], ptr @ff_vpx_norm_shift, i64 0, i64 %4
  %6 = load i8, ptr %5, align 1, !tbaa !56
  %7 = zext i8 %6 to i32
  %8 = getelementptr inbounds nuw i8, ptr %0, i64 316
  %9 = load i32, ptr %8, align 4, !tbaa !66
  %10 = getelementptr inbounds nuw i8, ptr %0, i64 336
  %11 = load i32, ptr %10, align 8, !tbaa !67
  %12 = shl i32 %3, %7
  store i32 %12, ptr %2, align 8, !tbaa !65
  %13 = shl i32 %11, %7
  %14 = add nsw i32 %9, %7
  %15 = icmp sgt i32 %14, -1
  br i1 %15, label %16, label %vpx_rac_renorm.exit10

16:                                               ; preds = %1
  %17 = getelementptr inbounds nuw i8, ptr %0, i64 320
  %18 = load ptr, ptr %17, align 8, !tbaa !68
  %19 = getelementptr inbounds nuw i8, ptr %0, i64 328
  %20 = load ptr, ptr %19, align 8, !tbaa !69
  %21 = icmp ult ptr %18, %20
  br i1 %21, label %22, label %vpx_rac_renorm.exit10

22:                                               ; preds = %16
  %23 = getelementptr inbounds nuw i8, ptr %18, i64 2
  store ptr %23, ptr %17, align 8, !tbaa !70
  %24 = load i16, ptr %18, align 1, !tbaa !56
  %25 = tail call i16 @llvm.bswap.i16(i16 %24)
  %26 = zext i16 %25 to i32
  %27 = shl i32 %26, %14
  %28 = or i32 %27, %13
  %29 = add nsw i32 %14, -16
  br label %vpx_rac_renorm.exit10

vpx_rac_renorm.exit10:                            ; preds = %1, %16, %22
  %.018.i8 = phi i32 [ %29, %22 ], [ %14, %16 ], [ %14, %1 ]
  %.0.i9 = phi i32 [ %28, %22 ], [ %13, %16 ], [ %13, %1 ]
  store i32 %.018.i8, ptr %8, align 4, !tbaa !66
  %30 = shl i32 %12, 7
  %31 = add i32 %30, -128
  %32 = ashr i32 %31, 8
  %33 = add nsw i32 %32, 1
  %34 = shl i32 %33, 16
  %.not = icmp ult i32 %.0.i9, %34
  %35 = sub i32 %12, %33
  %36 = select i1 %.not, i32 0, i32 %34
  %37 = select i1 %.not, i32 %33, i32 %35
  %38 = sub i32 %.0.i9, %36
  store i32 %38, ptr %10, align 8, !tbaa !67
  %39 = sext i32 %37 to i64
  %40 = getelementptr inbounds [256 x i8], ptr @ff_vpx_norm_shift, i64 0, i64 %39
  %41 = load i8, ptr %40, align 1, !tbaa !56
  %42 = zext i8 %41 to i32
  %43 = shl i32 %37, %42
  store i32 %43, ptr %2, align 8, !tbaa !65
  %44 = shl i32 %38, %42
  %45 = add nsw i32 %.018.i8, %42
  %46 = icmp sgt i32 %45, -1
  br i1 %46, label %47, label %vpx_rac_renorm.exit

47:                                               ; preds = %vpx_rac_renorm.exit10
  %48 = getelementptr inbounds nuw i8, ptr %0, i64 320
  %49 = load ptr, ptr %48, align 8, !tbaa !68
  %50 = getelementptr inbounds nuw i8, ptr %0, i64 328
  %51 = load ptr, ptr %50, align 8, !tbaa !69
  %52 = icmp ult ptr %49, %51
  br i1 %52, label %53, label %vpx_rac_renorm.exit

53:                                               ; preds = %47
  %54 = getelementptr inbounds nuw i8, ptr %49, i64 2
  store ptr %54, ptr %48, align 8, !tbaa !70
  %55 = load i16, ptr %49, align 1, !tbaa !56
  %56 = tail call i16 @llvm.bswap.i16(i16 %55)
  %57 = zext i16 %56 to i32
  %58 = shl i32 %57, %45
  %59 = or i32 %58, %44
  %60 = add nsw i32 %45, -16
  br label %vpx_rac_renorm.exit

vpx_rac_renorm.exit:                              ; preds = %vpx_rac_renorm.exit10, %47, %53
  %.promoted7.i.i = phi i32 [ %60, %53 ], [ %45, %47 ], [ %45, %vpx_rac_renorm.exit10 ]
  %.0.i = phi i32 [ %59, %53 ], [ %44, %47 ], [ %44, %vpx_rac_renorm.exit10 ]
  store i32 %.promoted7.i.i, ptr %8, align 4, !tbaa !66
  %61 = shl i32 %43, 7
  %62 = add i32 %61, -128
  %63 = ashr i32 %62, 8
  %64 = add nsw i32 %63, 1
  %65 = shl i32 %64, 16
  %.not32 = icmp ult i32 %.0.i, %65
  %66 = sub i32 %43, %64
  %67 = select i1 %.not32, i32 0, i32 %65
  %68 = select i1 %.not32, i32 %64, i32 %66
  store i32 %68, ptr %2, align 8, !tbaa !65
  %69 = sub i32 %.0.i, %67
  store i32 %69, ptr %10, align 8, !tbaa !67
  br i1 %.not, label %70, label %ref_to_update.exit

70:                                               ; preds = %vpx_rac_renorm.exit
  %71 = getelementptr inbounds nuw i8, ptr %0, i64 320
  %72 = getelementptr inbounds nuw i8, ptr %0, i64 328
  br label %73

73:                                               ; preds = %vpx_rac_renorm.exit.i.i, %70
  %74 = phi i32 [ %69, %70 ], [ %108, %vpx_rac_renorm.exit.i.i ]
  %.018.i8.i.i = phi i32 [ %.promoted7.i.i, %70 ], [ %.018.i.i.i, %vpx_rac_renorm.exit.i.i ]
  %75 = phi i32 [ %68, %70 ], [ %106, %vpx_rac_renorm.exit.i.i ]
  %.06.i.i = phi i32 [ 0, %70 ], [ %109, %vpx_rac_renorm.exit.i.i ]
  %.035.i.i = phi i32 [ 2, %70 ], [ %76, %vpx_rac_renorm.exit.i.i ]
  %76 = add nsw i32 %.035.i.i, -1
  %77 = shl i32 %.06.i.i, 1
  %78 = sext i32 %75 to i64
  %79 = getelementptr inbounds [256 x i8], ptr @ff_vpx_norm_shift, i64 0, i64 %78
  %80 = load i8, ptr %79, align 1, !tbaa !56
  %81 = zext i8 %80 to i32
  %82 = shl i32 %75, %81
  store i32 %82, ptr %2, align 8, !tbaa !65
  %83 = shl i32 %74, %81
  %84 = add nsw i32 %.018.i8.i.i, %81
  %85 = icmp sgt i32 %84, -1
  br i1 %85, label %86, label %vpx_rac_renorm.exit.i.i

86:                                               ; preds = %73
  %87 = load ptr, ptr %71, align 8, !tbaa !68
  %88 = load ptr, ptr %72, align 8, !tbaa !69
  %89 = icmp ult ptr %87, %88
  br i1 %89, label %90, label %vpx_rac_renorm.exit.i.i

90:                                               ; preds = %86
  %91 = getelementptr inbounds nuw i8, ptr %87, i64 2
  store ptr %91, ptr %71, align 8, !tbaa !70
  %92 = load i16, ptr %87, align 1, !tbaa !56
  %93 = tail call i16 @llvm.bswap.i16(i16 %92)
  %94 = zext i16 %93 to i32
  %95 = shl i32 %94, %84
  %96 = or i32 %95, %83
  %97 = add nsw i32 %84, -16
  br label %vpx_rac_renorm.exit.i.i

vpx_rac_renorm.exit.i.i:                          ; preds = %90, %86, %73
  %.018.i.i.i = phi i32 [ %97, %90 ], [ %84, %86 ], [ %84, %73 ]
  %.0.i.i.i = phi i32 [ %96, %90 ], [ %83, %86 ], [ %83, %73 ]
  store i32 %.018.i.i.i, ptr %8, align 4, !tbaa !66
  %98 = shl i32 %82, 7
  %99 = add i32 %98, -128
  %100 = ashr i32 %99, 8
  %101 = add nsw i32 %100, 1
  %102 = shl i32 %101, 16
  %103 = icmp uge i32 %.0.i.i.i, %102
  %104 = sub i32 %82, %101
  %105 = select i1 %103, i32 %102, i32 0
  %106 = select i1 %103, i32 %104, i32 %101
  %107 = zext i1 %103 to i32
  store i32 %106, ptr %2, align 8, !tbaa !65
  %108 = sub i32 %.0.i.i.i, %105
  store i32 %108, ptr %10, align 8, !tbaa !67
  %109 = or disjoint i32 %77, %107
  %.not.i.i = icmp eq i32 %76, 0
  br i1 %.not.i.i, label %vp89_rac_get_uint.exit.i, label %73, !llvm.loop !79

vp89_rac_get_uint.exit.i:                         ; preds = %vpx_rac_renorm.exit.i.i
  %switch.selectcmp = icmp eq i32 %109, 2
  %switch.select = select i1 %switch.selectcmp, i32 3, i32 -1
  %switch.selectcmp26 = icmp eq i32 %109, 1
  %switch.select27 = select i1 %switch.selectcmp26, i32 1, i32 %switch.select
  br label %ref_to_update.exit

ref_to_update.exit:                               ; preds = %vp89_rac_get_uint.exit.i, %vpx_rac_renorm.exit
  %.promoted9.i.i16 = phi i32 [ %69, %vpx_rac_renorm.exit ], [ %108, %vp89_rac_get_uint.exit.i ]
  %.promoted7.i.i15 = phi i32 [ %.promoted7.i.i, %vpx_rac_renorm.exit ], [ %.018.i.i.i, %vp89_rac_get_uint.exit.i ]
  %.promoted.i.i14 = phi i32 [ %68, %vpx_rac_renorm.exit ], [ %106, %vp89_rac_get_uint.exit.i ]
  %.0.i11 = phi i32 [ 0, %vpx_rac_renorm.exit ], [ %switch.select27, %vp89_rac_get_uint.exit.i ]
  %110 = getelementptr inbounds nuw i8, ptr %0, i64 4752
  store i32 %.0.i11, ptr %110, align 8, !tbaa !62
  br i1 %.not32, label %111, label %ref_to_update.exit25

111:                                              ; preds = %ref_to_update.exit
  %112 = getelementptr inbounds nuw i8, ptr %0, i64 320
  %113 = getelementptr inbounds nuw i8, ptr %0, i64 328
  br label %114

114:                                              ; preds = %vpx_rac_renorm.exit.i.i20, %111
  %115 = phi i32 [ %.promoted9.i.i16, %111 ], [ %149, %vpx_rac_renorm.exit.i.i20 ]
  %.018.i8.i.i17 = phi i32 [ %.promoted7.i.i15, %111 ], [ %.018.i.i.i21, %vpx_rac_renorm.exit.i.i20 ]
  %116 = phi i32 [ %.promoted.i.i14, %111 ], [ %147, %vpx_rac_renorm.exit.i.i20 ]
  %.06.i.i18 = phi i32 [ 0, %111 ], [ %150, %vpx_rac_renorm.exit.i.i20 ]
  %.035.i.i19 = phi i32 [ 2, %111 ], [ %117, %vpx_rac_renorm.exit.i.i20 ]
  %117 = add nsw i32 %.035.i.i19, -1
  %118 = shl i32 %.06.i.i18, 1
  %119 = sext i32 %116 to i64
  %120 = getelementptr inbounds [256 x i8], ptr @ff_vpx_norm_shift, i64 0, i64 %119
  %121 = load i8, ptr %120, align 1, !tbaa !56
  %122 = zext i8 %121 to i32
  %123 = shl i32 %116, %122
  store i32 %123, ptr %2, align 8, !tbaa !65
  %124 = shl i32 %115, %122
  %125 = add nsw i32 %.018.i8.i.i17, %122
  %126 = icmp sgt i32 %125, -1
  br i1 %126, label %127, label %vpx_rac_renorm.exit.i.i20

127:                                              ; preds = %114
  %128 = load ptr, ptr %112, align 8, !tbaa !68
  %129 = load ptr, ptr %113, align 8, !tbaa !69
  %130 = icmp ult ptr %128, %129
  br i1 %130, label %131, label %vpx_rac_renorm.exit.i.i20

131:                                              ; preds = %127
  %132 = getelementptr inbounds nuw i8, ptr %128, i64 2
  store ptr %132, ptr %112, align 8, !tbaa !70
  %133 = load i16, ptr %128, align 1, !tbaa !56
  %134 = tail call i16 @llvm.bswap.i16(i16 %133)
  %135 = zext i16 %134 to i32
  %136 = shl i32 %135, %125
  %137 = or i32 %136, %124
  %138 = add nsw i32 %125, -16
  br label %vpx_rac_renorm.exit.i.i20

vpx_rac_renorm.exit.i.i20:                        ; preds = %131, %127, %114
  %.018.i.i.i21 = phi i32 [ %138, %131 ], [ %125, %127 ], [ %125, %114 ]
  %.0.i.i.i22 = phi i32 [ %137, %131 ], [ %124, %127 ], [ %124, %114 ]
  store i32 %.018.i.i.i21, ptr %8, align 4, !tbaa !66
  %139 = shl i32 %123, 7
  %140 = add i32 %139, -128
  %141 = ashr i32 %140, 8
  %142 = add nsw i32 %141, 1
  %143 = shl i32 %142, 16
  %144 = icmp uge i32 %.0.i.i.i22, %143
  %145 = sub i32 %123, %142
  %146 = select i1 %144, i32 %143, i32 0
  %147 = select i1 %144, i32 %145, i32 %142
  %148 = zext i1 %144 to i32
  store i32 %147, ptr %2, align 8, !tbaa !65
  %149 = sub i32 %.0.i.i.i22, %146
  store i32 %149, ptr %10, align 8, !tbaa !67
  %150 = or disjoint i32 %118, %148
  %.not.i.i23 = icmp eq i32 %117, 0
  br i1 %.not.i.i23, label %vp89_rac_get_uint.exit.i24, label %114, !llvm.loop !79

vp89_rac_get_uint.exit.i24:                       ; preds = %vpx_rac_renorm.exit.i.i20
  %switch.selectcmp28 = icmp eq i32 %150, 2
  %switch.select29 = select i1 %switch.selectcmp28, i32 2, i32 -1
  %switch.selectcmp30 = icmp eq i32 %150, 1
  %switch.select31 = select i1 %switch.selectcmp30, i32 1, i32 %switch.select29
  br label %ref_to_update.exit25

ref_to_update.exit25:                             ; preds = %vp89_rac_get_uint.exit.i24, %ref_to_update.exit
  %.0.i13 = phi i32 [ 0, %ref_to_update.exit ], [ %switch.select31, %vp89_rac_get_uint.exit.i24 ]
  %151 = getelementptr inbounds nuw i8, ptr %0, i64 4756
  store i32 %.0.i13, ptr %151, align 4, !tbaa !61
  ret void
}